target datalayout = "e-m:e-p270:32:32-p271:32:32-p272:64:64-i64:64-i128:128-f80:128-n8:16:32:64-S128"
target triple = "x86_64-pc-linux-gnu"

%struct.expert_field = type { i32, i32 }

@dissect_gtpv2_ind.oct5_flags = internal constant [9 x ptr] [ptr @hf_gtpv2_daf, ptr @hf_gtpv2_dtf, ptr @hf_gtpv2_hi, ptr @hf_gtpv2_dfi, ptr @hf_gtpv2_oi, ptr @hf_gtpv2_isrsi, ptr @hf_gtpv2_israi, ptr @hf_gtpv2_sgwci, ptr null], align 16
@ei_gtpv2_ie_len_invalid = internal global %struct.expert_field zeroinitializer, align 4
@.str.2 = private unnamed_addr constant [44 x i8] c"Older version?, should be 2 octets in 8.0.0\00", align 1
@dissect_gtpv2_ind.oct6_flags = internal constant [9 x ptr] [ptr @hf_gtpv2_sqci, ptr @hf_gtpv2_uimsi, ptr @hf_gtpv2_cfsi, ptr @hf_gtpv2_crsi, ptr @hf_gtpv2_ps, ptr @hf_gtpv2_pt, ptr @hf_gtpv2_si, ptr @hf_gtpv2_msv, ptr null], align 16
@dissect_gtpv2_ind.oct7_flags = internal constant [9 x ptr] [ptr @hf_gtpv2_retloc, ptr @hf_gtpv2_pbic, ptr @hf_gtpv2_srni, ptr @hf_gtpv2_s6af, ptr @hf_gtpv2_s4af, ptr @hf_gtpv2_mbmdt, ptr @hf_gtpv2_israu, ptr @hf_gtpv2_ccrsi, ptr null], align 16
@dissect_gtpv2_ind.oct8_flags = internal constant [9 x ptr] [ptr @hf_gtpv2_cprai, ptr @hf_gtpv2_arrl, ptr @hf_gtpv2_ppof, ptr @hf_gtpv2_ppon_ppei, ptr @hf_gtpv2_ppsi, ptr @hf_gtpv2_csfbi, ptr @hf_gtpv2_clii, ptr @hf_gtpv2_cpsr, ptr null], align 16
@dissect_gtpv2_ind.oct9_flags = internal constant [9 x ptr] [ptr @hf_gtpv2_nsi, ptr @hf_gtpv2_uasi, ptr @hf_gtpv2_dtci, ptr @hf_gtpv2_bdwi, ptr @hf_gtpv2_psci, ptr @hf_gtpv2_pcri, ptr @hf_gtpv2_aosi, ptr @hf_gtpv2_aopi, ptr null], align 16
@dissect_gtpv2_ind.oct10_flags = internal constant [9 x ptr] [ptr @hf_gtpv2_roaai, ptr @hf_gtpv2_epcosi, ptr @hf_gtpv2_cpopci, ptr @hf_gtpv2_pmtsmi, ptr @hf_gtpv2_s11tf, ptr @hf_gtpv2_pnsi, ptr @hf_gtpv2_unaccsi, ptr @hf_gtpv2_wpmsi, ptr null], align 16
@dissect_gtpv2_ind.oct11_flags = internal constant [9 x ptr] [ptr @hf_gtpv2_5gsnn26, ptr @hf_gtpv2_reprefi, ptr @hf_gtpv2_5gsiwk, ptr @hf_gtpv2_eevrsi, ptr @hf_gtpv2_ltemui, ptr @hf_gtpv2_ltempi, ptr @hf_gtpv2_enbcrsi, ptr @hf_gtpv2_tspcmi, ptr null], align 16
@dissect_gtpv2_ind.oct12_flags = internal constant [9 x ptr] [ptr @hf_gtpv2_csrmfi, ptr @hf_gtpv2_mtedtn, ptr @hf_gtpv2_mtedta, ptr @hf_gtpv2_n5gnmi, ptr @hf_gtpv2_5gcnrs, ptr @hf_gtpv2_5gcnri, ptr @hf_gtpv2_5srhoi, ptr @hf_gtpv2_ethpdn, ptr null], align 16
@dissect_gtpv2_ind.oct13_flags = internal constant [9 x ptr] [ptr @hf_gtpv2_nspusi, ptr @hf_gtpv2_pgwrnsi, ptr @hf_gtpv2_rppcsi, ptr @hf_gtpv2_pgwchi, ptr @hf_gtpv2_sissme, ptr @hf_gtpv2_nsenbi, ptr @hf_gtpv2_idfupf, ptr @hf_gtpv2_emci, ptr null], align 16
@dissect_gtpv2_ind.oct14_flags = internal constant [6 x ptr] [ptr @hf_gtpv2_spare_b7_b4, ptr @hf_gtpv2_lapcosi, ptr @hf_gtpv2_ltemsai, ptr @hf_gtpv2_srtpi, ptr @hf_gtpv2_upipsi, ptr null], align 16
@ei_gtpv2_ie_data_not_dissected = internal global %struct.expert_field zeroinitializer, align 4
@.str.3 = private unnamed_addr constant [37 x i8] c"The rest of the IE not dissected yet\00", align 1

; Function Attrs: null_pointer_is_valid sspstrong uwtable
define hidden void @dissect_gtpv2_ind(ptr noundef %0, ptr noundef %1, ptr noundef %2, ptr noundef %3, i16 noundef zeroext %4, i8 noundef zeroext %5, i8 noundef zeroext %6, ptr noundef %7) #1 {
  %9 = alloca ptr, align 8
  %10 = alloca ptr, align 8
  %11 = alloca ptr, align 8
  %12 = alloca ptr, align 8
  %13 = alloca i16, align 2
  %14 = alloca i8, align 1
  %15 = alloca i8, align 1
  %16 = alloca ptr, align 8
  %17 = alloca i32, align 4
  %18 = alloca i32, align 4
  store ptr %0, ptr %9, align 8
  store ptr %1, ptr %10, align 8
  store ptr %2, ptr %11, align 8
  store ptr %3, ptr %12, align 8
  store i16 %4, ptr %13, align 2
  store i8 %5, ptr %14, align 1
  store i8 %6, ptr %15, align 1
  store ptr %7, ptr %16, align 8
  call void @llvm.lifetime.start.p0(i64 4, ptr %17) #11
  store i32 0, ptr %17, align 4
  %19 = load ptr, ptr %11, align 8
  %20 = load ptr, ptr %9, align 8
  %21 = load i32, ptr %17, align 4
  call void @proto_tree_add_bitmask_list(ptr noundef %19, ptr noundef %20, i32 noundef %21, i32 noundef 1, ptr noundef @dissect_gtpv2_ind.oct5_flags, i32 noundef 0)
  %22 = load i16, ptr %13, align 2
  %23 = zext i16 %22 to i32
  %24 = icmp eq i32 %23, 1
  br i1 %24, label %25, label %32

25:                                               ; preds = %8
  %26 = load ptr, ptr %11, align 8
  %27 = load ptr, ptr %10, align 8
  %28 = load ptr, ptr %9, align 8
  %29 = load i16, ptr %13, align 2
  %30 = zext i16 %29 to i32
  %31 = call ptr (ptr, ptr, ptr, ptr, i32, i32, ptr, ...) @proto_tree_add_expert_format(ptr noundef %26, ptr noundef %27, ptr noundef @ei_gtpv2_ie_len_invalid, ptr noundef %28, i32 noundef 0, i32 noundef %30, ptr noundef @.str.2)
  store i32 1, ptr %18, align 4
  br label %130

32:                                               ; preds = %8
  %33 = load i32, ptr %17, align 4
  %34 = add i32 %33, 1
  store i32 %34, ptr %17, align 4
  %35 = load ptr, ptr %11, align 8
  %36 = load ptr, ptr %9, align 8
  %37 = load i32, ptr %17, align 4
  call void @proto_tree_add_bitmask_list(ptr noundef %35, ptr noundef %36, i32 noundef %37, i32 noundef 1, ptr noundef @dissect_gtpv2_ind.oct6_flags, i32 noundef 0)
  %38 = load i32, ptr %17, align 4
  %39 = add i32 %38, 1
  store i32 %39, ptr %17, align 4
  %40 = load i16, ptr %13, align 2
  %41 = zext i16 %40 to i32
  %42 = icmp eq i32 %41, 2
  br i1 %42, label %43, label %44

43:                                               ; preds = %32
  store i32 1, ptr %18, align 4
  br label %130

44:                                               ; preds = %32
  %45 = load ptr, ptr %11, align 8
  %46 = load ptr, ptr %9, align 8
  %47 = load i32, ptr %17, align 4
  call void @proto_tree_add_bitmask_list(ptr noundef %45, ptr noundef %46, i32 noundef %47, i32 noundef 1, ptr noundef @dissect_gtpv2_ind.oct7_flags, i32 noundef 0)
  %48 = load i32, ptr %17, align 4
  %49 = add i32 %48, 1
  store i32 %49, ptr %17, align 4
  %50 = load i16, ptr %13, align 2
  %51 = zext i16 %50 to i32
  %52 = icmp eq i32 %51, 3
  br i1 %52, label %53, label %54

53:                                               ; preds = %44
  store i32 1, ptr %18, align 4
  br label %130

54:                                               ; preds = %44
  %55 = load ptr, ptr %11, align 8
  %56 = load ptr, ptr %9, align 8
  %57 = load i32, ptr %17, align 4
  call void @proto_tree_add_bitmask_list(ptr noundef %55, ptr noundef %56, i32 noundef %57, i32 noundef 1, ptr noundef @dissect_gtpv2_ind.oct8_flags, i32 noundef 0)
  %58 = load i32, ptr %17, align 4
  %59 = add i32 %58, 1
  store i32 %59, ptr %17, align 4
  %60 = load i16, ptr %13, align 2
  %61 = zext i16 %60 to i32
  %62 = icmp eq i32 %61, 4
  br i1 %62, label %63, label %64

63:                                               ; preds = %54
  store i32 1, ptr %18, align 4
  br label %130

64:                                               ; preds = %54
  %65 = load ptr, ptr %11, align 8
  %66 = load ptr, ptr %9, align 8
  %67 = load i32, ptr %17, align 4
  call void @proto_tree_add_bitmask_list(ptr noundef %65, ptr noundef %66, i32 noundef %67, i32 noundef 1, ptr noundef @dissect_gtpv2_ind.oct9_flags, i32 noundef 0)
  %68 = load i32, ptr %17, align 4
  %69 = add i32 %68, 1
  store i32 %69, ptr %17, align 4
  %70 = load i16, ptr %13, align 2
  %71 = zext i16 %70 to i32
  %72 = icmp eq i32 %71, 5
  br i1 %72, label %73, label %74

73:                                               ; preds = %64
  store i32 1, ptr %18, align 4
  br label %130

74:                                               ; preds = %64
  %75 = load ptr, ptr %11, align 8
  %76 = load ptr, ptr %9, align 8
  %77 = load i32, ptr %17, align 4
  call void @proto_tree_add_bitmask_list(ptr noundef %75, ptr noundef %76, i32 noundef %77, i32 noundef 1, ptr noundef @dissect_gtpv2_ind.oct10_flags, i32 noundef 0)
  %78 = load i32, ptr %17, align 4
  %79 = add i32 %78, 1
  store i32 %79, ptr %17, align 4
  %80 = load i16, ptr %13, align 2
  %81 = zext i16 %80 to i32
  %82 = icmp eq i32 %81, 6
  br i1 %82, label %83, label %84

83:                                               ; preds = %74
  store i32 1, ptr %18, align 4
  br label %130

84:                                               ; preds = %74
  %85 = load ptr, ptr %11, align 8
  %86 = load ptr, ptr %9, align 8
  %87 = load i32, ptr %17, align 4
  call void @proto_tree_add_bitmask_list(ptr noundef %85, ptr noundef %86, i32 noundef %87, i32 noundef 1, ptr noundef @dissect_gtpv2_ind.oct11_flags, i32 noundef 0)
  %88 = load i32, ptr %17, align 4
  %89 = add i32 %88, 1
  store i32 %89, ptr %17, align 4
  %90 = load i16, ptr %13, align 2
  %91 = zext i16 %90 to i32
  %92 = icmp eq i32 %91, 7
  br i1 %92, label %93, label %94

93:                                               ; preds = %84
  store i32 1, ptr %18, align 4
  br label %130

94:                                               ; preds = %84
  %95 = load ptr, ptr %11, align 8
  %96 = load ptr, ptr %9, align 8
  %97 = load i32, ptr %17, align 4
  call void @proto_tree_add_bitmask_list(ptr noundef %95, ptr noundef %96, i32 noundef %97, i32 noundef 1, ptr noundef @dissect_gtpv2_ind.oct12_flags, i32 noundef 0)
  %98 = load i32, ptr %17, align 4
  %99 = add i32 %98, 1
  store i32 %99, ptr %17, align 4
  %100 = load i16, ptr %13, align 2
  %101 = zext i16 %100 to i32
  %102 = icmp eq i32 %101, 8
  br i1 %102, label %103, label %104

103:                                              ; preds = %94
  store i32 1, ptr %18, align 4
  br label %130

104:                                              ; preds = %94
  %105 = load ptr, ptr %11, align 8
  %106 = load ptr, ptr %9, align 8
  %107 = load i32, ptr %17, align 4
  call void @proto_tree_add_bitmask_list(ptr noundef %105, ptr noundef %106, i32 noundef %107, i32 noundef 1, ptr noundef @dissect_gtpv2_ind.oct13_flags, i32 noundef 0)
  %108 = load i32, ptr %17, align 4
  %109 = add i32 %108, 1
  store i32 %109, ptr %17, align 4
  %110 = load i16, ptr %13, align 2
  %111 = zext i16 %110 to i32
  %112 = icmp eq i32 %111, 9
  br i1 %112, label %113, label %114

113:                                              ; preds = %104
  store i32 1, ptr %18, align 4
  br label %130

114:                                              ; preds = %104
  %115 = load ptr, ptr %11, align 8
  %116 = load ptr, ptr %9, align 8
  %117 = load i32, ptr %17, align 4
  call void @proto_tree_add_bitmask_list(ptr noundef %115, ptr noundef %116, i32 noundef %117, i32 noundef 1, ptr noundef @dissect_gtpv2_ind.oct14_flags, i32 noundef 0)
  %118 = load i32, ptr %17, align 4
  %119 = add i32 %118, 1
  store i32 %119, ptr %17, align 4
  %120 = load i16, ptr %13, align 2
  %121 = zext i16 %120 to i32
  %122 = icmp eq i32 %121, 10
  br i1 %122, label %123, label %124

123:                                              ; preds = %114
  store i32 1, ptr %18, align 4
  br label %130

124:                                              ; preds = %114
  %125 = load ptr, ptr %11, align 8
  %126 = load ptr, ptr %10, align 8
  %127 = load ptr, ptr %9, align 8
  %128 = load i32, ptr %17, align 4
  %129 = call ptr (ptr, ptr, ptr, ptr, i32, i32, ptr, ...) @proto_tree_add_expert_format(ptr noundef %125, ptr noundef %126, ptr noundef @ei_gtpv2_ie_data_not_dissected, ptr noundef %127, i32 noundef %128, i32 noundef -1, ptr noundef @.str.3)
  store i32 0, ptr %18, align 4
  br label %130

130:                                              ; preds = %124, %123, %113, %103, %93, %83, %73, %63, %53, %43, %25
  call void @llvm.lifetime.end.p0(i64 4, ptr %17) #11
  %131 = load i32, ptr %18, align 4
  switch i32 %131, label %133 [
    i32 0, label %132
    i32 1, label %132
  ]

132:                                              ; preds = %130, %130
  ret void

133:                                              ; preds = %130
  unreachable
}