; Function Attrs: null_pointer_is_valid sspstrong uwtable
define hidden void @dissect_gtpv2_ind(ptr noundef %0, ptr noundef %1, ptr noundef %2, ptr readnone captures(none) %3, i16 noundef zeroext %4, i8 zeroext %5, i8 zeroext %6, ptr readnone captures(none) %7) #1 {
  tail call void @proto_tree_add_bitmask_list(ptr noundef %2, ptr noundef %0, i32 noundef 0, i32 noundef 1, ptr noundef nonnull @dissect_gtpv2_ind.oct5_flags, i32 noundef 0)
  %9 = icmp eq i16 %4, 1
  br i1 %9, label %10, label %12

10:                                               ; preds = %8
  %11 = tail call ptr (ptr, ptr, ptr, ptr, i32, i32, ptr, ...) @proto_tree_add_expert_format(ptr noundef %2, ptr noundef %1, ptr noundef nonnull @ei_gtpv2_ie_len_invalid, ptr noundef %0, i32 noundef 0, i32 noundef 1, ptr noundef nonnull @.str.2)
  br label %32

12:                                               ; preds = %8
  tail call void @proto_tree_add_bitmask_list(ptr noundef %2, ptr noundef %0, i32 noundef 1, i32 noundef 1, ptr noundef nonnull @dissect_gtpv2_ind.oct6_flags, i32 noundef 0)
  %13 = icmp eq i16 %4, 2
  br i1 %13, label %32, label %14

14:                                               ; preds = %12
  tail call void @proto_tree_add_bitmask_list(ptr noundef %2, ptr noundef %0, i32 noundef 2, i32 noundef 1, ptr noundef nonnull @dissect_gtpv2_ind.oct7_flags, i32 noundef 0)
  %15 = icmp eq i16 %4, 3
  br i1 %15, label %32, label %16

16:                                               ; preds = %14
  tail call void @proto_tree_add_bitmask_list(ptr noundef %2, ptr noundef %0, i32 noundef 3, i32 noundef 1, ptr noundef nonnull @dissect_gtpv2_ind.oct8_flags, i32 noundef 0)
  %17 = icmp eq i16 %4, 4
  br i1 %17, label %32, label %18

18:                                               ; preds = %16
  tail call void @proto_tree_add_bitmask_list(ptr noundef %2, ptr noundef %0, i32 noundef 4, i32 noundef 1, ptr noundef nonnull @dissect_gtpv2_ind.oct9_flags, i32 noundef 0)
  %19 = icmp eq i16 %4, 5
  br i1 %19, label %32, label %20

20:                                               ; preds = %18
  tail call void @proto_tree_add_bitmask_list(ptr noundef %2, ptr noundef %0, i32 noundef 5, i32 noundef 1, ptr noundef nonnull @dissect_gtpv2_ind.oct10_flags, i32 noundef 0)
  %21 = icmp eq i16 %4, 6
  br i1 %21, label %32, label %22

22:                                               ; preds = %20
  tail call void @proto_tree_add_bitmask_list(ptr noundef %2, ptr noundef %0, i32 noundef 6, i32 noundef 1, ptr noundef nonnull @dissect_gtpv2_ind.oct11_flags, i32 noundef 0)
  %23 = icmp eq i16 %4, 7
  br i1 %23, label %32, label %24

24:                                               ; preds = %22
  tail call void @proto_tree_add_bitmask_list(ptr noundef %2, ptr noundef %0, i32 noundef 7, i32 noundef 1, ptr noundef nonnull @dissect_gtpv2_ind.oct12_flags, i32 noundef 0)
  %25 = icmp eq i16 %4, 8
  br i1 %25, label %32, label %26

26:                                               ; preds = %24
  tail call void @proto_tree_add_bitmask_list(ptr noundef %2, ptr noundef %0, i32 noundef 8, i32 noundef 1, ptr noundef nonnull @dissect_gtpv2_ind.oct13_flags, i32 noundef 0)
  %27 = icmp eq i16 %4, 9
  br i1 %27, label %32, label %28

28:                                               ; preds = %26
  tail call void @proto_tree_add_bitmask_list(ptr noundef %2, ptr noundef %0, i32 noundef 9, i32 noundef 1, ptr noundef nonnull @dissect_gtpv2_ind.oct14_flags, i32 noundef 0)
  %29 = icmp eq i16 %4, 10
  br i1 %29, label %32, label %30

30:                                               ; preds = %28
  %31 = tail call ptr (ptr, ptr, ptr, ptr, i32, i32, ptr, ...) @proto_tree_add_expert_format(ptr noundef %2, ptr noundef %1, ptr noundef nonnull @ei_gtpv2_ie_data_not_dissected, ptr noundef %0, i32 noundef 10, i32 noundef -1, ptr noundef nonnull @.str.3)
  br label %32

32:                                               ; preds = %28, %26, %24, %22, %20, %18, %16, %14, %12, %30, %10
  ret void
}